---
triple:          'x86_64-apple-darwin'
binary-path:     '/Volumes/Local Disk/Projects/_Languages/C-Plus-Plus/gen-alg'
relocations:
  - { offsetInCU: 0xE7, offset: 0xE7, size: 0x8, addend: 0x0, symName: __ZnwmPv, symObjAddr: 0x0, symBinAddr: 0x10000176C, symSize: 0x12 }
  - { offsetInCU: 0x35A7, offset: 0x35A7, size: 0x8, addend: 0x0, symName: __ZStL8__ioinit, symObjAddr: 0x2FD38, symBinAddr: 0x10000C0E4, symSize: 0x0 }
  - { offsetInCU: 0x7D83, offset: 0x7D83, size: 0x8, addend: 0x0, symName: __ZNSt8__detail30__integer_to_chars_is_unsignedIjEE, symObjAddr: 0x39B5, symBinAddr: 0x1000054A0, symSize: 0x0 }
  - { offsetInCU: 0x7D9D, offset: 0x7D9D, size: 0x8, addend: 0x0, symName: __ZNSt8__detail30__integer_to_chars_is_unsignedImEE, symObjAddr: 0x39B6, symBinAddr: 0x1000054A1, symSize: 0x0 }
  - { offsetInCU: 0x7DB7, offset: 0x7DB7, size: 0x8, addend: 0x0, symName: __ZNSt8__detail30__integer_to_chars_is_unsignedIyEE, symObjAddr: 0x39B7, symBinAddr: 0x1000054A2, symSize: 0x0 }
  - { offsetInCU: 0x7DE0, offset: 0x7DE0, size: 0x8, addend: 0x0, symName: __GLOBAL__sub_I_gen_alg.cpp, symObjAddr: 0x384E, symBinAddr: 0x100004FBA, symSize: 0xB }
  - { offsetInCU: 0x7E09, offset: 0x7E09, size: 0x8, addend: 0x0, symName: __Z41__static_initialization_and_destruction_0v, symObjAddr: 0x3815, symBinAddr: 0x100004F81, symSize: 0x39 }
  - { offsetInCU: 0x7E11, offset: 0x7E11, size: 0x8, addend: 0x0, symName: __GLOBAL__sub_I_gen_alg.cpp, symObjAddr: 0x384E, symBinAddr: 0x100004FBA, symSize: 0xB }
  - { offsetInCU: 0x7E57, offset: 0x7E57, size: 0x8, addend: 0x0, symName: __ZNSt12_Vector_baseIiSaIiEE12_Vector_implC1ERKS0_, symObjAddr: 0x37D4, symBinAddr: 0x100004F40, symSize: 0x41 }
  - { offsetInCU: 0x7E5F, offset: 0x7E5F, size: 0x8, addend: 0x0, symName: __Z41__static_initialization_and_destruction_0v, symObjAddr: 0x3815, symBinAddr: 0x100004F81, symSize: 0x39 }
  - { offsetInCU: 0x7EC3, offset: 0x7EC3, size: 0x8, addend: 0x0, symName: __ZNSt20__copy_move_backwardILb1ELb0ESt26random_access_iterator_tagE13__copy_move_bIP9IndividuoS4_EET0_T_S6_S5_, symObjAddr: 0x3774, symBinAddr: 0x100004EE0, symSize: 0x60 }
  - { offsetInCU: 0x7ECB, offset: 0x7ECB, size: 0x8, addend: 0x0, symName: __ZNSt12_Vector_baseIiSaIiEE12_Vector_implC1ERKS0_, symObjAddr: 0x37D4, symBinAddr: 0x100004F40, symSize: 0x41 }
  - { offsetInCU: 0x7F5E, offset: 0x7F5E, size: 0x8, addend: 0x0, symName: __ZNK9__gnu_cxx5__ops14_Iter_less_valclINS_17__normal_iteratorIP9IndividuoSt6vectorIS4_SaIS4_EEEES4_EEbT_RT0_, symObjAddr: 0x3740, symBinAddr: 0x100004EAC, symSize: 0x34 }
  - { offsetInCU: 0x7F66, offset: 0x7F66, size: 0x8, addend: 0x0, symName: __ZNSt20__copy_move_backwardILb1ELb0ESt26random_access_iterator_tagE13__copy_move_bIP9IndividuoS4_EET0_T_S6_S5_, symObjAddr: 0x3774, symBinAddr: 0x100004EE0, symSize: 0x60 }
  - { offsetInCU: 0x8044, offset: 0x8044, size: 0x8, addend: 0x0, symName: __ZSt9__fill_a1IPiiEN9__gnu_cxx11__enable_ifIXsrSt11__is_scalarIT0_E7__valueEvE6__typeET_S8_RKS4_, symObjAddr: 0x3709, symBinAddr: 0x100004E75, symSize: 0x37 }
  - { offsetInCU: 0x804C, offset: 0x804C, size: 0x8, addend: 0x0, symName: __ZNK9__gnu_cxx5__ops14_Iter_less_valclINS_17__normal_iteratorIP9IndividuoSt6vectorIS4_SaIS4_EEEES4_EEbT_RT0_, symObjAddr: 0x3740, symBinAddr: 0x100004EAC, symSize: 0x34 }
  - { offsetInCU: 0x80AF, offset: 0x80AF, size: 0x8, addend: 0x0, symName: __ZSt4moveIRSaIiEEONSt16remove_referenceIT_E4typeEOS3_, symObjAddr: 0x36FB, symBinAddr: 0x100004E67, symSize: 0xE }
  - { offsetInCU: 0x80B7, offset: 0x80B7, size: 0x8, addend: 0x0, symName: __ZSt9__fill_a1IPiiEN9__gnu_cxx11__enable_ifIXsrSt11__is_scalarIT0_E7__valueEvE6__typeET_S8_RKS4_, symObjAddr: 0x3709, symBinAddr: 0x100004E75, symSize: 0x37 }
  - { offsetInCU: 0x80AE, offset: 0x80AE, size: 0x8, addend: 0x0, symName: __ZNSt12_Vector_baseIiSaIiEE17_Vector_impl_data12_M_copy_dataERKS2_, symObjAddr: 0x36BE, symBinAddr: 0x100004E2A, symSize: 0x3D }
  - { offsetInCU: 0x80B6, offset: 0x80B6, size: 0x8, addend: 0x0, symName: __ZSt4moveIRSaIiEEONSt16remove_referenceIT_E4typeEOS3_, symObjAddr: 0x36FB, symBinAddr: 0x100004E67, symSize: 0xE }
  - { offsetInCU: 0x813E, offset: 0x813E, size: 0x8, addend: 0x0, symName: __ZNSt12_Vector_baseIiSaIiEEC2ERKS0_, symObjAddr: 0x3698, symBinAddr: 0x100004E04, symSize: 0x26 }
  - { offsetInCU: 0x8146, offset: 0x8146, size: 0x8, addend: 0x0, symName: __ZNSt12_Vector_baseIiSaIiEE17_Vector_impl_data12_M_copy_dataERKS2_, symObjAddr: 0x36BE, symBinAddr: 0x100004E2A, symSize: 0x3D }
  - { offsetInCU: 0x81CD, offset: 0x81CD, size: 0x8, addend: 0x0, symName: __ZSt23__copy_move_backward_a2ILb1EP9IndividuoS1_ET1_T0_S3_S2_, symObjAddr: 0x366A, symBinAddr: 0x100004DD6, symSize: 0x2E }
  - { offsetInCU: 0x82ED, offset: 0x82ED, size: 0x8, addend: 0x0, symName: __ZSt11__push_heapIN9__gnu_cxx17__normal_iteratorIP9IndividuoSt6vectorIS2_SaIS2_EEEElS2_NS0_5__ops14_Iter_less_valEEvT_T0_SB_T1_RT2_, symObjAddr: 0x3526, symBinAddr: 0x100004C92, symSize: 0x144 }
  - { offsetInCU: 0x82F5, offset: 0x82F5, size: 0x8, addend: 0x0, symName: __ZSt23__copy_move_backward_a2ILb1EP9IndividuoS1_ET1_T0_S3_S2_, symObjAddr: 0x366A, symBinAddr: 0x100004DD6, symSize: 0x2E }
  - { offsetInCU: 0x833C, offset: 0x833C, size: 0x8, addend: 0x0, symName: __ZSt4moveIRN9__gnu_cxx5__ops15_Iter_less_iterEEONSt16remove_referenceIT_E4typeEOS5_, symObjAddr: 0x3518, symBinAddr: 0x100004C84, symSize: 0xE }
  - { offsetInCU: 0x8344, offset: 0x8344, size: 0x8, addend: 0x0, symName: __ZSt11__push_heapIN9__gnu_cxx17__normal_iteratorIP9IndividuoSt6vectorIS2_SaIS2_EEEElS2_NS0_5__ops14_Iter_less_valEEvT_T0_SB_T1_RT2_, symObjAddr: 0x3526, symBinAddr: 0x100004C92, symSize: 0x144 }
  - { offsetInCU: 0x834C, offset: 0x834C, size: 0x8, addend: 0x0, symName: __ZSt8__fill_aIPiiEvT_S1_RKT0_, symObjAddr: 0x34EA, symBinAddr: 0x100004C56, symSize: 0x2E }
  - { offsetInCU: 0x8354, offset: 0x8354, size: 0x8, addend: 0x0, symName: __ZSt4moveIRN9__gnu_cxx5__ops15_Iter_less_iterEEONSt16remove_referenceIT_E4typeEOS5_, symObjAddr: 0x3518, symBinAddr: 0x100004C84, symSize: 0xE }
  - { offsetInCU: 0x83D1, offset: 0x83D1, size: 0x8, addend: 0x0, symName: __ZNSt12_Vector_baseIiSaIiEE17_Vector_impl_data12_M_swap_dataERS2_, symObjAddr: 0x3492, symBinAddr: 0x100004BFE, symSize: 0x58 }
  - { offsetInCU: 0x83D9, offset: 0x83D9, size: 0x8, addend: 0x0, symName: __ZSt8__fill_aIPiiEvT_S1_RKT0_, symObjAddr: 0x34EA, symBinAddr: 0x100004C56, symSize: 0x2E }
  - { offsetInCU: 0x846D, offset: 0x846D, size: 0x8, addend: 0x0, symName: __ZNSt6vectorIiSaIiEEC1ERKS0_, symObjAddr: 0x346C, symBinAddr: 0x100004BD8, symSize: 0x26 }
  - { offsetInCU: 0x8475, offset: 0x8475, size: 0x8, addend: 0x0, symName: __ZNSt12_Vector_baseIiSaIiEE17_Vector_impl_data12_M_swap_dataERS2_, symObjAddr: 0x3492, symBinAddr: 0x100004BFE, symSize: 0x58 }
  - { offsetInCU: 0x848A, offset: 0x848A, size: 0x8, addend: 0x0, symName: __ZNKSt12_Vector_baseIiSaIiEE13get_allocatorEv, symObjAddr: 0x342A, symBinAddr: 0x100004B96, symSize: 0x42 }
  - { offsetInCU: 0x85DF, offset: 0x85DF, size: 0x8, addend: 0x0, symName: __ZSt12__niter_wrapIN9__gnu_cxx17__normal_iteratorIP9IndividuoSt6vectorIS2_SaIS2_EEEES3_ET_S8_T0_, symObjAddr: 0x33EC, symBinAddr: 0x100004B58, symSize: 0x3E }
  - { offsetInCU: 0x85E7, offset: 0x85E7, size: 0x8, addend: 0x0, symName: __ZNKSt12_Vector_baseIiSaIiEE13get_allocatorEv, symObjAddr: 0x342A, symBinAddr: 0x100004B96, symSize: 0x42 }
  - { offsetInCU: 0x8603, offset: 0x8603, size: 0x8, addend: 0x0, symName: __ZSt23__copy_move_backward_a1ILb1EP9IndividuoS1_ET1_T0_S3_S2_, symObjAddr: 0x33BF, symBinAddr: 0x100004B2B, symSize: 0x2D }
  - { offsetInCU: 0x860B, offset: 0x860B, size: 0x8, addend: 0x0, symName: __ZSt12__niter_wrapIN9__gnu_cxx17__normal_iteratorIP9IndividuoSt6vectorIS2_SaIS2_EEEES3_ET_S8_T0_, symObjAddr: 0x33EC, symBinAddr: 0x100004B58, symSize: 0x3E }
  - { offsetInCU: 0x86AE, offset: 0x86AE, size: 0x8, addend: 0x0, symName: __ZSt12__niter_baseIP9IndividuoSt6vectorIS0_SaIS0_EEET_N9__gnu_cxx17__normal_iteratorIS5_T0_EE, symObjAddr: 0x33A2, symBinAddr: 0x100004B0E, symSize: 0x1D }
  - { offsetInCU: 0x86B6, offset: 0x86B6, size: 0x8, addend: 0x0, symName: __ZSt23__copy_move_backward_a1ILb1EP9IndividuoS1_ET1_T0_S3_S2_, symObjAddr: 0x33BF, symBinAddr: 0x100004B2B, symSize: 0x2D }
  - { offsetInCU: 0x8749, offset: 0x8749, size: 0x8, addend: 0x0, symName: __ZSt4swapI9IndividuoENSt9enable_ifIXsrSt6__and_IJSt6__not_ISt15__is_tuple_likeIT_EESt21is_move_constructibleIS5_ESt18is_move_assignableIS5_EEE5valueEvE4typeERS5_SF_, symObjAddr: 0x332A, symBinAddr: 0x100004A96, symSize: 0x78 }
  - { offsetInCU: 0x8751, offset: 0x8751, size: 0x8, addend: 0x0, symName: __ZSt12__niter_baseIP9IndividuoSt6vectorIS0_SaIS0_EEET_N9__gnu_cxx17__normal_iteratorIS5_T0_EE, symObjAddr: 0x33A2, symBinAddr: 0x100004B0E, symSize: 0x1D }
  - { offsetInCU: 0x880B, offset: 0x880B, size: 0x8, addend: 0x0, symName: __ZSt13__adjust_heapIN9__gnu_cxx17__normal_iteratorIP9IndividuoSt6vectorIS2_SaIS2_EEEElS2_NS0_5__ops15_Iter_less_iterEEvT_T0_SB_T1_T2_, symObjAddr: 0x30DB, symBinAddr: 0x100004847, symSize: 0x24F }
  - { offsetInCU: 0x8813, offset: 0x8813, size: 0x8, addend: 0x0, symName: __ZSt4swapI9IndividuoENSt9enable_ifIXsrSt6__and_IJSt6__not_ISt15__is_tuple_likeIT_EESt21is_move_constructibleIS5_ESt18is_move_assignableIS5_EEE5valueEvE4typeERS5_SF_, symObjAddr: 0x332A, symBinAddr: 0x100004A96, symSize: 0x78 }
  - { offsetInCU: 0x8898, offset: 0x8898, size: 0x8, addend: 0x0, symName: __ZSt7forwardI9IndividuoEOT_RNSt16remove_referenceIS1_E4typeE, symObjAddr: 0x30CD, symBinAddr: 0x100004839, symSize: 0xE }
  - { offsetInCU: 0x88A0, offset: 0x88A0, size: 0x8, addend: 0x0, symName: __ZSt13__adjust_heapIN9__gnu_cxx17__normal_iteratorIP9IndividuoSt6vectorIS2_SaIS2_EEEElS2_NS0_5__ops15_Iter_less_iterEEvT_T0_SB_T1_T2_, symObjAddr: 0x30DB, symBinAddr: 0x100004847, symSize: 0x24F }
  - { offsetInCU: 0x8908, offset: 0x8908, size: 0x8, addend: 0x0, symName: __ZSt10__fill_n_aIPimiET_S1_T0_RKT1_St26random_access_iterator_tag, symObjAddr: 0x3070, symBinAddr: 0x1000047DC, symSize: 0x5D }
  - { offsetInCU: 0x8910, offset: 0x8910, size: 0x8, addend: 0x0, symName: __ZSt7forwardI9IndividuoEOT_RNSt16remove_referenceIS1_E4typeE, symObjAddr: 0x30CD, symBinAddr: 0x100004839, symSize: 0xE }
  - { offsetInCU: 0x8972, offset: 0x8972, size: 0x8, addend: 0x0, symName: __ZNK9__gnu_cxx5__ops14_Val_less_iterclI9IndividuoNS_17__normal_iteratorIPS3_St6vectorIS3_SaIS3_EEEEEEbRT_T0_, symObjAddr: 0x303C, symBinAddr: 0x1000047A8, symSize: 0x34 }
  - { offsetInCU: 0x897A, offset: 0x897A, size: 0x8, addend: 0x0, symName: __ZSt10__fill_n_aIPimiET_S1_T0_RKT1_St26random_access_iterator_tag, symObjAddr: 0x3070, symBinAddr: 0x1000047DC, symSize: 0x5D }
  - { offsetInCU: 0x89E1, offset: 0x89E1, size: 0x8, addend: 0x0, symName: __ZNSt6vectorIiSaIiEE14_M_move_assignEOS1_St17integral_constantIbLb1EE, symObjAddr: 0x2F90, symBinAddr: 0x1000046FC, symSize: 0xAC }
  - { offsetInCU: 0x89E9, offset: 0x89E9, size: 0x8, addend: 0x0, symName: __ZNK9__gnu_cxx5__ops14_Val_less_iterclI9IndividuoNS_17__normal_iteratorIPS3_St6vectorIS3_SaIS3_EEEEEEbRT_T0_, symObjAddr: 0x303C, symBinAddr: 0x1000047A8, symSize: 0x34 }
  - { offsetInCU: 0x8AFA, offset: 0x8AFA, size: 0x8, addend: 0x0, symName: __ZSt4moveIRSt6vectorIiSaIiEEEONSt16remove_referenceIT_E4typeEOS5_, symObjAddr: 0x2F82, symBinAddr: 0x1000046EE, symSize: 0xE }
  - { offsetInCU: 0x8B02, offset: 0x8B02, size: 0x8, addend: 0x0, symName: __ZNSt6vectorIiSaIiEE14_M_move_assignEOS1_St17integral_constantIbLb1EE, symObjAddr: 0x2F90, symBinAddr: 0x1000046FC, symSize: 0xAC }
  - { offsetInCU: 0x8C0C, offset: 0x8C0C, size: 0x8, addend: 0x0, symName: __ZSt22__copy_move_backward_aILb1EN9__gnu_cxx17__normal_iteratorIP9IndividuoSt6vectorIS2_SaIS2_EEEES7_ET1_T0_S9_S8_, symObjAddr: 0x2F18, symBinAddr: 0x100004684, symSize: 0x6A }
  - { offsetInCU: 0x8C14, offset: 0x8C14, size: 0x8, addend: 0x0, symName: __ZSt4moveIRSt6vectorIiSaIiEEEONSt16remove_referenceIT_E4typeEOS5_, symObjAddr: 0x2F82, symBinAddr: 0x1000046EE, symSize: 0xE }
  - { offsetInCU: 0x8C30, offset: 0x8C30, size: 0x8, addend: 0x0, symName: __ZSt12__miter_baseIN9__gnu_cxx17__normal_iteratorIP9IndividuoSt6vectorIS2_SaIS2_EEEEET_S8_, symObjAddr: 0x2F0A, symBinAddr: 0x100004676, symSize: 0xE }
  - { offsetInCU: 0x8C38, offset: 0x8C38, size: 0x8, addend: 0x0, symName: __ZSt22__copy_move_backward_aILb1EN9__gnu_cxx17__normal_iteratorIP9IndividuoSt6vectorIS2_SaIS2_EEEES7_ET1_T0_S9_S8_, symObjAddr: 0x2F18, symBinAddr: 0x100004684, symSize: 0x6A }
  - { offsetInCU: 0x8C2A, offset: 0x8C2A, size: 0x8, addend: 0x0, symName: __ZNSt12_Vector_baseIiSaIiEE17_Vector_impl_dataC2EOS2_, symObjAddr: 0x2EA2, symBinAddr: 0x10000460E, symSize: 0x68 }
  - { offsetInCU: 0x8C32, offset: 0x8C32, size: 0x8, addend: 0x0, symName: __ZSt12__miter_baseIN9__gnu_cxx17__normal_iteratorIP9IndividuoSt6vectorIS2_SaIS2_EEEEET_S8_, symObjAddr: 0x2F0A, symBinAddr: 0x100004676, symSize: 0xE }
  - { offsetInCU: 0x8CF6, offset: 0x8CF6, size: 0x8, addend: 0x0, symName: __ZSt4moveIRNSt12_Vector_baseIiSaIiEE12_Vector_implEEONSt16remove_referenceIT_E4typeEOS6_, symObjAddr: 0x2E94, symBinAddr: 0x100004600, symSize: 0xE }
  - { offsetInCU: 0x8CFE, offset: 0x8CFE, size: 0x8, addend: 0x0, symName: __ZNSt12_Vector_baseIiSaIiEE17_Vector_impl_dataC2EOS2_, symObjAddr: 0x2EA2, symBinAddr: 0x10000460E, symSize: 0x68 }
  - { offsetInCU: 0x8DA1, offset: 0x8DA1, size: 0x8, addend: 0x0, symName: __ZSt9iter_swapIN9__gnu_cxx17__normal_iteratorIP9IndividuoSt6vectorIS2_SaIS2_EEEES7_EvT_T0_, symObjAddr: 0x2E56, symBinAddr: 0x1000045C2, symSize: 0x3E }
  - { offsetInCU: 0x8DA9, offset: 0x8DA9, size: 0x8, addend: 0x0, symName: __ZSt4moveIRNSt12_Vector_baseIiSaIiEE12_Vector_implEEONSt16remove_referenceIT_E4typeEOS6_, symObjAddr: 0x2E94, symBinAddr: 0x100004600, symSize: 0xE }
  - { offsetInCU: 0x8D17, offset: 0x8D17, size: 0x8, addend: 0x0, symName: __ZN9__gnu_cxx17__normal_iteratorIP9IndividuoSt6vectorIS1_SaIS1_EEEmmEv, symObjAddr: 0x2E36, symBinAddr: 0x1000045A2, symSize: 0x20 }
  - { offsetInCU: 0x8D1F, offset: 0x8D1F, size: 0x8, addend: 0x0, symName: __ZSt9iter_swapIN9__gnu_cxx17__normal_iteratorIP9IndividuoSt6vectorIS2_SaIS2_EEEES7_EvT_T0_, symObjAddr: 0x2E56, symBinAddr: 0x1000045C2, symSize: 0x3E }
  - { offsetInCU: 0x8E34, offset: 0x8E34, size: 0x8, addend: 0x0, symName: __ZSt10__pop_heapIN9__gnu_cxx17__normal_iteratorIP9IndividuoSt6vectorIS2_SaIS2_EEEENS0_5__ops15_Iter_less_iterEEvT_SA_SA_RT0_, symObjAddr: 0x2D3A, symBinAddr: 0x1000044A6, symSize: 0xFC }
  - { offsetInCU: 0x8E3C, offset: 0x8E3C, size: 0x8, addend: 0x0, symName: __ZN9__gnu_cxx17__normal_iteratorIP9IndividuoSt6vectorIS1_SaIS1_EEEmmEv, symObjAddr: 0x2E36, symBinAddr: 0x1000045A2, symSize: 0x20 }
  - { offsetInCU: 0x8E95, offset: 0x8E95, size: 0x8, addend: 0x0, symName: __ZN9__gnu_cxxltIP9IndividuoSt6vectorIS1_SaIS1_EEEEbRKNS_17__normal_iteratorIT_T0_EESB_, symObjAddr: 0x2CFF, symBinAddr: 0x10000446B, symSize: 0x3B }
  - { offsetInCU: 0x8E9D, offset: 0x8E9D, size: 0x8, addend: 0x0, symName: __ZSt10__pop_heapIN9__gnu_cxx17__normal_iteratorIP9IndividuoSt6vectorIS2_SaIS2_EEEENS0_5__ops15_Iter_less_iterEEvT_SA_SA_RT0_, symObjAddr: 0x2D3A, symBinAddr: 0x1000044A6, symSize: 0xFC }
  - { offsetInCU: 0x8F6E, offset: 0x8F6E, size: 0x8, addend: 0x0, symName: __ZSt11__make_heapIN9__gnu_cxx17__normal_iteratorIP9IndividuoSt6vectorIS2_SaIS2_EEEENS0_5__ops15_Iter_less_iterEEvT_SA_RT0_, symObjAddr: 0x2BB5, symBinAddr: 0x100004321, symSize: 0x14A }
  - { offsetInCU: 0x8F76, offset: 0x8F76, size: 0x8, addend: 0x0, symName: __ZN9__gnu_cxxltIP9IndividuoSt6vectorIS1_SaIS1_EEEEbRKNS_17__normal_iteratorIT_T0_EESB_, symObjAddr: 0x2CFF, symBinAddr: 0x10000446B, symSize: 0x3B }
  - { offsetInCU: 0x9030, offset: 0x9030, size: 0x8, addend: 0x0, symName: __ZSt6fill_nIPimiET_S1_T0_RKT1_, symObjAddr: 0x2B7C, symBinAddr: 0x1000042E8, symSize: 0x39 }
  - { offsetInCU: 0x9038, offset: 0x9038, size: 0x8, addend: 0x0, symName: __ZSt11__make_heapIN9__gnu_cxx17__normal_iteratorIP9IndividuoSt6vectorIS2_SaIS2_EEEENS0_5__ops15_Iter_less_iterEEvT_SA_RT0_, symObjAddr: 0x2BB5, symBinAddr: 0x100004321, symSize: 0x14A }
  - { offsetInCU: 0x90C8, offset: 0x90C8, size: 0x8, addend: 0x0, symName: __ZSt10_ConstructIiJEEvPT_DpOT0_, symObjAddr: 0x2B56, symBinAddr: 0x1000042C2, symSize: 0x26 }
  - { offsetInCU: 0x90D0, offset: 0x90D0, size: 0x8, addend: 0x0, symName: __ZSt6fill_nIPimiET_S1_T0_RKT1_, symObjAddr: 0x2B7C, symBinAddr: 0x1000042E8, symSize: 0x39 }
  - { offsetInCU: 0x9114, offset: 0x9114, size: 0x8, addend: 0x0, symName: __ZSt11__addressofIiEPT_RS0_, symObjAddr: 0x2B48, symBinAddr: 0x1000042B4, symSize: 0xE }
  - { offsetInCU: 0x911C, offset: 0x911C, size: 0x8, addend: 0x0, symName: __ZSt10_ConstructIiJEEvPT_DpOT0_, symObjAddr: 0x2B56, symBinAddr: 0x1000042C2, symSize: 0x26 }
  - { offsetInCU: 0x924A, offset: 0x924A, size: 0x8, addend: 0x0, symName: __ZSt25__unguarded_linear_insertIN9__gnu_cxx17__normal_iteratorIP9IndividuoSt6vectorIS2_SaIS2_EEEENS0_5__ops14_Val_less_iterEEvT_T0_, symObjAddr: 0x2A6A, symBinAddr: 0x1000041D6, symSize: 0xDE }
  - { offsetInCU: 0x9252, offset: 0x9252, size: 0x8, addend: 0x0, symName: __ZSt11__addressofIiEPT_RS0_, symObjAddr: 0x2B48, symBinAddr: 0x1000042B4, symSize: 0xE }
  - { offsetInCU: 0x91D6, offset: 0x91D6, size: 0x8, addend: 0x0, symName: __ZNSt6vectorIiSaIiEEaSEOS1_, symObjAddr: 0x2A32, symBinAddr: 0x10000419E, symSize: 0x38 }
  - { offsetInCU: 0x91DE, offset: 0x91DE, size: 0x8, addend: 0x0, symName: __ZSt25__unguarded_linear_insertIN9__gnu_cxx17__normal_iteratorIP9IndividuoSt6vectorIS2_SaIS2_EEEENS0_5__ops14_Val_less_iterEEvT_T0_, symObjAddr: 0x2A6A, symBinAddr: 0x1000041D6, symSize: 0xDE }
  - { offsetInCU: 0x932C, offset: 0x932C, size: 0x8, addend: 0x0, symName: __ZSt13move_backwardIN9__gnu_cxx17__normal_iteratorIP9IndividuoSt6vectorIS2_SaIS2_EEEES7_ET0_T_S9_S8_, symObjAddr: 0x29E7, symBinAddr: 0x100004153, symSize: 0x4B }
  - { offsetInCU: 0x9334, offset: 0x9334, size: 0x8, addend: 0x0, symName: __ZNSt6vectorIiSaIiEEaSEOS1_, symObjAddr: 0x2A32, symBinAddr: 0x10000419E, symSize: 0x38 }
  - { offsetInCU: 0x9308, offset: 0x9308, size: 0x8, addend: 0x0, symName: __ZNSt12_Vector_baseIiSaIiEE12_Vector_implC1EOS2_, symObjAddr: 0x298A, symBinAddr: 0x1000040F6, symSize: 0x5D }
  - { offsetInCU: 0x9310, offset: 0x9310, size: 0x8, addend: 0x0, symName: __ZSt13move_backwardIN9__gnu_cxx17__normal_iteratorIP9IndividuoSt6vectorIS2_SaIS2_EEEES7_ET0_T_S9_S8_, symObjAddr: 0x29E7, symBinAddr: 0x100004153, symSize: 0x4B }
  - { offsetInCU: 0x93C7, offset: 0x93C7, size: 0x8, addend: 0x0, symName: __ZSt4moveIR9IndividuoEONSt16remove_referenceIT_E4typeEOS3_, symObjAddr: 0x297B, symBinAddr: 0x1000040E7, symSize: 0xF }
  - { offsetInCU: 0x93DE, offset: 0x93DE, size: 0x8, addend: 0x0, symName: __ZNK9__gnu_cxx5__ops15_Iter_less_iterclINS_17__normal_iteratorIP9IndividuoSt6vectorIS4_SaIS4_EEEES9_EEbT_T0_, symObjAddr: 0x293A, symBinAddr: 0x1000040A6, symSize: 0x41 }
  - { offsetInCU: 0x93E6, offset: 0x93E6, size: 0x8, addend: 0x0, symName: __ZSt4moveIR9IndividuoEONSt16remove_referenceIT_E4typeEOS3_, symObjAddr: 0x297B, symBinAddr: 0x1000040E7, symSize: 0xF }
  - { offsetInCU: 0x94D9, offset: 0x94D9, size: 0x8, addend: 0x0, symName: __ZN9__gnu_cxxeqIP9IndividuoSt6vectorIS1_SaIS1_EEEEbRKNS_17__normal_iteratorIT_T0_EESB_, symObjAddr: 0x28FE, symBinAddr: 0x10000406A, symSize: 0x3C }
  - { offsetInCU: 0x95C4, offset: 0x95C4, size: 0x8, addend: 0x0, symName: __ZSt21__unguarded_partitionIN9__gnu_cxx17__normal_iteratorIP9IndividuoSt6vectorIS2_SaIS2_EEEENS0_5__ops15_Iter_less_iterEET_SA_SA_SA_T0_, symObjAddr: 0x2846, symBinAddr: 0x100003FB2, symSize: 0xB8 }
  - { offsetInCU: 0x95CC, offset: 0x95CC, size: 0x8, addend: 0x0, symName: __ZN9__gnu_cxxeqIP9IndividuoSt6vectorIS1_SaIS1_EEEEbRKNS_17__normal_iteratorIT_T0_EESB_, symObjAddr: 0x28FE, symBinAddr: 0x10000406A, symSize: 0x3C }
  - { offsetInCU: 0x9657, offset: 0x9657, size: 0x8, addend: 0x0, symName: __ZSt22__move_median_to_firstIN9__gnu_cxx17__normal_iteratorIP9IndividuoSt6vectorIS2_SaIS2_EEEENS0_5__ops15_Iter_less_iterEEvT_SA_SA_SA_T0_, symObjAddr: 0x2722, symBinAddr: 0x100003E8E, symSize: 0x124 }
  - { offsetInCU: 0x965F, offset: 0x965F, size: 0x8, addend: 0x0, symName: __ZSt21__unguarded_partitionIN9__gnu_cxx17__normal_iteratorIP9IndividuoSt6vectorIS2_SaIS2_EEEENS0_5__ops15_Iter_less_iterEET_SA_SA_SA_T0_, symObjAddr: 0x2846, symBinAddr: 0x100003FB2, symSize: 0xB8 }
  - { offsetInCU: 0x96D8, offset: 0x96D8, size: 0x8, addend: 0x0, symName: __ZSt11__sort_heapIN9__gnu_cxx17__normal_iteratorIP9IndividuoSt6vectorIS2_SaIS2_EEEENS0_5__ops15_Iter_less_iterEEvT_SA_RT0_, symObjAddr: 0x26C6, symBinAddr: 0x100003E32, symSize: 0x5C }
  - { offsetInCU: 0x96E0, offset: 0x96E0, size: 0x8, addend: 0x0, symName: __ZSt22__move_median_to_firstIN9__gnu_cxx17__normal_iteratorIP9IndividuoSt6vectorIS2_SaIS2_EEEENS0_5__ops15_Iter_less_iterEEvT_SA_SA_SA_T0_, symObjAddr: 0x2722, symBinAddr: 0x100003E8E, symSize: 0x124 }
  - { offsetInCU: 0x9757, offset: 0x9757, size: 0x8, addend: 0x0, symName: __ZSt13__heap_selectIN9__gnu_cxx17__normal_iteratorIP9IndividuoSt6vectorIS2_SaIS2_EEEENS0_5__ops15_Iter_less_iterEEvT_SA_SA_T0_, symObjAddr: 0x2637, symBinAddr: 0x100003DA3, symSize: 0x8F }
  - { offsetInCU: 0x975F, offset: 0x975F, size: 0x8, addend: 0x0, symName: __ZSt11__sort_heapIN9__gnu_cxx17__normal_iteratorIP9IndividuoSt6vectorIS2_SaIS2_EEEENS0_5__ops15_Iter_less_iterEEvT_SA_RT0_, symObjAddr: 0x26C6, symBinAddr: 0x100003E32, symSize: 0x5C }
  - { offsetInCU: 0x9755, offset: 0x9755, size: 0x8, addend: 0x0, symName: __ZSt13__countl_zeroImEiT_, symObjAddr: 0x25F2, symBinAddr: 0x100003D5E, symSize: 0x45 }
  - { offsetInCU: 0x975D, offset: 0x975D, size: 0x8, addend: 0x0, symName: __ZSt13__heap_selectIN9__gnu_cxx17__normal_iteratorIP9IndividuoSt6vectorIS2_SaIS2_EEEENS0_5__ops15_Iter_less_iterEEvT_SA_SA_T0_, symObjAddr: 0x2637, symBinAddr: 0x100003DA3, symSize: 0x8F }
  - { offsetInCU: 0x9854, offset: 0x9854, size: 0x8, addend: 0x0, symName: __ZSt19__relocate_object_aI9IndividuoS0_SaIS0_EEvPT_PT0_RT1_, symObjAddr: 0x2533, symBinAddr: 0x100003C9F, symSize: 0xBF }
  - { offsetInCU: 0x985C, offset: 0x985C, size: 0x8, addend: 0x0, symName: __ZSt13__countl_zeroImEiT_, symObjAddr: 0x25F2, symBinAddr: 0x100003D5E, symSize: 0x45 }
  - { offsetInCU: 0x99A4, offset: 0x99A4, size: 0x8, addend: 0x0, symName: __ZSt8_DestroyI9IndividuoEvPT_, symObjAddr: 0x2518, symBinAddr: 0x100003C84, symSize: 0x1B }
  - { offsetInCU: 0x99AC, offset: 0x99AC, size: 0x8, addend: 0x0, symName: __ZSt19__relocate_object_aI9IndividuoS0_SaIS0_EEvPT_PT0_RT1_, symObjAddr: 0x2533, symBinAddr: 0x100003C9F, symSize: 0xBF }
  - { offsetInCU: 0x99F4, offset: 0x99F4, size: 0x8, addend: 0x0, symName: __ZSt11__addressofI9IndividuoEPT_RS1_, symObjAddr: 0x250A, symBinAddr: 0x100003C76, symSize: 0xE }
  - { offsetInCU: 0x99FC, offset: 0x99FC, size: 0x8, addend: 0x0, symName: __ZSt8_DestroyI9IndividuoEvPT_, symObjAddr: 0x2518, symBinAddr: 0x100003C84, symSize: 0x1B }
  - { offsetInCU: 0x9A9A, offset: 0x9A9A, size: 0x8, addend: 0x0, symName: __ZSt14__relocate_a_1IiiENSt9enable_ifIXsrSt24__is_bitwise_relocatableIT_vE5valueEPS2_E4typeES4_S4_S4_RSaIT0_E, symObjAddr: 0x24A7, symBinAddr: 0x100003C13, symSize: 0x63 }
  - { offsetInCU: 0x9AA2, offset: 0x9AA2, size: 0x8, addend: 0x0, symName: __ZSt11__addressofI9IndividuoEPT_RS1_, symObjAddr: 0x250A, symBinAddr: 0x100003C76, symSize: 0xE }
  - { offsetInCU: 0x9AEB, offset: 0x9AEB, size: 0x8, addend: 0x0, symName: __ZSt12__niter_baseIPiET_S1_, symObjAddr: 0x2499, symBinAddr: 0x100003C05, symSize: 0xE }
  - { offsetInCU: 0x9AF3, offset: 0x9AF3, size: 0x8, addend: 0x0, symName: __ZSt14__relocate_a_1IiiENSt9enable_ifIXsrSt24__is_bitwise_relocatableIT_vE5valueEPS2_E4typeES4_S4_S4_RSaIT0_E, symObjAddr: 0x24A7, symBinAddr: 0x100003C13, symSize: 0x63 }
  - { offsetInCU: 0x9B03, offset: 0x9B03, size: 0x8, addend: 0x0, symName: __ZNSt15__new_allocatorIiE8allocateEmPKv, symObjAddr: 0x2432, symBinAddr: 0x100003B9E, symSize: 0x67 }
  - { offsetInCU: 0x9B0B, offset: 0x9B0B, size: 0x8, addend: 0x0, symName: __ZSt12__niter_baseIPiET_S1_, symObjAddr: 0x2499, symBinAddr: 0x100003C05, symSize: 0xE }
  - { offsetInCU: 0x9B89, offset: 0x9B89, size: 0x8, addend: 0x0, symName: __ZNSt27__uninitialized_default_n_1ILb1EE18__uninit_default_nIPimEET_S3_T0_, symObjAddr: 0x23D4, symBinAddr: 0x100003B40, symSize: 0x5E }
  - { offsetInCU: 0x9D40, offset: 0x9D40, size: 0x8, addend: 0x0, symName: __ZSt26__unguarded_insertion_sortIN9__gnu_cxx17__normal_iteratorIP9IndividuoSt6vectorIS2_SaIS2_EEEENS0_5__ops15_Iter_less_iterEEvT_SA_T0_, symObjAddr: 0x2382, symBinAddr: 0x100003AEE, symSize: 0x52 }
  - { offsetInCU: 0x9D48, offset: 0x9D48, size: 0x8, addend: 0x0, symName: __ZNSt27__uninitialized_default_n_1ILb1EE18__uninit_default_nIPimEET_S3_T0_, symObjAddr: 0x23D4, symBinAddr: 0x100003B40, symSize: 0x5E }
  - { offsetInCU: 0x9DCB, offset: 0x9DCB, size: 0x8, addend: 0x0, symName: __ZSt16__insertion_sortIN9__gnu_cxx17__normal_iteratorIP9IndividuoSt6vectorIS2_SaIS2_EEEENS0_5__ops15_Iter_less_iterEEvT_SA_T0_, symObjAddr: 0x2241, symBinAddr: 0x1000039AD, symSize: 0x141 }
  - { offsetInCU: 0x9DD3, offset: 0x9DD3, size: 0x8, addend: 0x0, symName: __ZSt26__unguarded_insertion_sortIN9__gnu_cxx17__normal_iteratorIP9IndividuoSt6vectorIS2_SaIS2_EEEENS0_5__ops15_Iter_less_iterEEvT_SA_T0_, symObjAddr: 0x2382, symBinAddr: 0x100003AEE, symSize: 0x52 }
  - { offsetInCU: 0x9DA1, offset: 0x9DA1, size: 0x8, addend: 0x0, symName: __ZN9IndividuoaSEOS_, symObjAddr: 0x220A, symBinAddr: 0x100003976, symSize: 0x37 }
  - { offsetInCU: 0x9DA9, offset: 0x9DA9, size: 0x8, addend: 0x0, symName: __ZSt16__insertion_sortIN9__gnu_cxx17__normal_iteratorIP9IndividuoSt6vectorIS2_SaIS2_EEEENS0_5__ops15_Iter_less_iterEEvT_SA_T0_, symObjAddr: 0x2241, symBinAddr: 0x1000039AD, symSize: 0x141 }
  - { offsetInCU: 0x9E14, offset: 0x9E14, size: 0x8, addend: 0x0, symName: __ZN9IndividuoC1EOS_, symObjAddr: 0x21D6, symBinAddr: 0x100003942, symSize: 0x34 }
  - { offsetInCU: 0x9E1C, offset: 0x9E1C, size: 0x8, addend: 0x0, symName: __ZN9IndividuoaSEOS_, symObjAddr: 0x220A, symBinAddr: 0x100003976, symSize: 0x37 }
  - { offsetInCU: 0x9E78, offset: 0x9E78, size: 0x8, addend: 0x0, symName: __ZNSt6vectorIiSaIiEEC1EOS1_, symObjAddr: 0x21B0, symBinAddr: 0x10000391C, symSize: 0x26 }
  - { offsetInCU: 0x9E80, offset: 0x9E80, size: 0x8, addend: 0x0, symName: __ZN9IndividuoC1EOS_, symObjAddr: 0x21D6, symBinAddr: 0x100003942, symSize: 0x34 }
  - { offsetInCU: 0x9EDB, offset: 0x9EDB, size: 0x8, addend: 0x0, symName: __ZNSt12_Vector_baseIiSaIiEEC2EOS1_, symObjAddr: 0x218A, symBinAddr: 0x1000038F6, symSize: 0x26 }
  - { offsetInCU: 0x9EE3, offset: 0x9EE3, size: 0x8, addend: 0x0, symName: __ZNSt6vectorIiSaIiEEC1EOS1_, symObjAddr: 0x21B0, symBinAddr: 0x10000391C, symSize: 0x26 }
  - { offsetInCU: 0x9EF2, offset: 0x9EF2, size: 0x8, addend: 0x0, symName: __ZNK9__gnu_cxx17__normal_iteratorIP9IndividuoSt6vectorIS1_SaIS1_EEEplEl, symObjAddr: 0x214A, symBinAddr: 0x1000038B6, symSize: 0x40 }
  - { offsetInCU: 0xA048, offset: 0xA048, size: 0x8, addend: 0x0, symName: __ZSt27__unguarded_partition_pivotIN9__gnu_cxx17__normal_iteratorIP9IndividuoSt6vectorIS2_SaIS2_EEEENS0_5__ops15_Iter_less_iterEET_SA_SA_T0_, symObjAddr: 0x209A, symBinAddr: 0x100003806, symSize: 0xB0 }
  - { offsetInCU: 0xA0C1, offset: 0xA0C1, size: 0x8, addend: 0x0, symName: __ZSt14__partial_sortIN9__gnu_cxx17__normal_iteratorIP9IndividuoSt6vectorIS2_SaIS2_EEEENS0_5__ops15_Iter_less_iterEEvT_SA_SA_T0_, symObjAddr: 0x2055, symBinAddr: 0x1000037C1, symSize: 0x45 }
  - { offsetInCU: 0xA0C9, offset: 0xA0C9, size: 0x8, addend: 0x0, symName: __ZSt27__unguarded_partition_pivotIN9__gnu_cxx17__normal_iteratorIP9IndividuoSt6vectorIS2_SaIS2_EEEENS0_5__ops15_Iter_less_iterEET_SA_SA_T0_, symObjAddr: 0x209A, symBinAddr: 0x100003806, symSize: 0xB0 }
  - { offsetInCU: 0xA094, offset: 0xA094, size: 0x8, addend: 0x0, symName: __ZSt11__bit_widthImEiT_, symObjAddr: 0x202B, symBinAddr: 0x100003797, symSize: 0x2A }
  - { offsetInCU: 0xA09C, offset: 0xA09C, size: 0x8, addend: 0x0, symName: __ZSt14__partial_sortIN9__gnu_cxx17__normal_iteratorIP9IndividuoSt6vectorIS2_SaIS2_EEEENS0_5__ops15_Iter_less_iterEEvT_SA_SA_T0_, symObjAddr: 0x2055, symBinAddr: 0x1000037C1, symSize: 0x45 }
  - { offsetInCU: 0xA12A, offset: 0xA12A, size: 0x8, addend: 0x0, symName: __ZN9IndividuoD1Ev, symObjAddr: 0x2010, symBinAddr: 0x10000377C, symSize: 0x1B }
  - { offsetInCU: 0xA132, offset: 0xA132, size: 0x8, addend: 0x0, symName: __ZSt11__bit_widthImEiT_, symObjAddr: 0x202B, symBinAddr: 0x100003797, symSize: 0x2A }
  - { offsetInCU: 0xA1C9, offset: 0xA1C9, size: 0x8, addend: 0x0, symName: __ZSt14__relocate_a_1IP9IndividuoS1_SaIS0_EET0_T_S4_S3_RT1_, symObjAddr: 0x1F9F, symBinAddr: 0x10000370B, symSize: 0x71 }
  - { offsetInCU: 0xA1D1, offset: 0xA1D1, size: 0x8, addend: 0x0, symName: __ZN9IndividuoD1Ev, symObjAddr: 0x2010, symBinAddr: 0x10000377C, symSize: 0x1B }
  - { offsetInCU: 0xA241, offset: 0xA241, size: 0x8, addend: 0x0, symName: __ZSt12__niter_baseIP9IndividuoET_S2_, symObjAddr: 0x1F91, symBinAddr: 0x1000036FD, symSize: 0xE }
  - { offsetInCU: 0xA249, offset: 0xA249, size: 0x8, addend: 0x0, symName: __ZSt14__relocate_a_1IP9IndividuoS1_SaIS0_EET0_T_S4_S3_RT1_, symObjAddr: 0x1F9F, symBinAddr: 0x10000370B, symSize: 0x71 }
  - { offsetInCU: 0xA24A, offset: 0xA24A, size: 0x8, addend: 0x0, symName: __ZNSt15__new_allocatorI9IndividuoE8allocateEmPKv, symObjAddr: 0x1F2A, symBinAddr: 0x100003696, symSize: 0x67 }
  - { offsetInCU: 0xA252, offset: 0xA252, size: 0x8, addend: 0x0, symName: __ZSt12__niter_baseIP9IndividuoET_S2_, symObjAddr: 0x1F91, symBinAddr: 0x1000036FD, symSize: 0xE }
  - { offsetInCU: 0xA301, offset: 0xA301, size: 0x8, addend: 0x0, symName: __ZSt3minImERKT_S2_S2_, symObjAddr: 0x1EFF, symBinAddr: 0x10000366B, symSize: 0x2B }
  - { offsetInCU: 0xA309, offset: 0xA309, size: 0x8, addend: 0x0, symName: __ZNSt15__new_allocatorI9IndividuoE8allocateEmPKv, symObjAddr: 0x1F2A, symBinAddr: 0x100003696, symSize: 0x67 }
  - { offsetInCU: 0xA353, offset: 0xA353, size: 0x8, addend: 0x0, symName: __ZNSt12_Destroy_auxILb0EE9__destroyIP9IndividuoEEvT_S4_, symObjAddr: 0x1EC6, symBinAddr: 0x100003632, symSize: 0x39 }
  - { offsetInCU: 0xA35B, offset: 0xA35B, size: 0x8, addend: 0x0, symName: __ZSt3minImERKT_S2_S2_, symObjAddr: 0x1EFF, symBinAddr: 0x10000366B, symSize: 0x2B }
  - { offsetInCU: 0xA3A4, offset: 0xA3A4, size: 0x8, addend: 0x0, symName: __ZNSt15__new_allocatorI9IndividuoE10deallocateEPS0_m, symObjAddr: 0x1E96, symBinAddr: 0x100003602, symSize: 0x30 }
  - { offsetInCU: 0xA3AC, offset: 0xA3AC, size: 0x8, addend: 0x0, symName: __ZNSt12_Destroy_auxILb0EE9__destroyIP9IndividuoEEvT_S4_, symObjAddr: 0x1EC6, symBinAddr: 0x100003632, symSize: 0x39 }
  - { offsetInCU: 0xA45B, offset: 0xA45B, size: 0x8, addend: 0x0, symName: __ZSt12__relocate_aIPiS0_SaIiEET0_T_S3_S2_RT1_, symObjAddr: 0x1E32, symBinAddr: 0x10000359E, symSize: 0x64 }
  - { offsetInCU: 0xA4FA, offset: 0xA4FA, size: 0x8, addend: 0x0, symName: __ZSt3maxImERKT_S2_S2_, symObjAddr: 0x1E07, symBinAddr: 0x100003573, symSize: 0x2B }
  - { offsetInCU: 0xA502, offset: 0xA502, size: 0x8, addend: 0x0, symName: __ZSt12__relocate_aIPiS0_SaIiEET0_T_S3_S2_RT1_, symObjAddr: 0x1E32, symBinAddr: 0x10000359E, symSize: 0x64 }
  - { offsetInCU: 0xA58D, offset: 0xA58D, size: 0x8, addend: 0x0, symName: __ZSt25__uninitialized_default_nIPimET_S1_T0_, symObjAddr: 0x1DDE, symBinAddr: 0x10000354A, symSize: 0x29 }
  - { offsetInCU: 0xA595, offset: 0xA595, size: 0x8, addend: 0x0, symName: __ZSt3maxImERKT_S2_S2_, symObjAddr: 0x1E07, symBinAddr: 0x100003573, symSize: 0x2B }
  - { offsetInCU: 0xA5A9, offset: 0xA5A9, size: 0x8, addend: 0x0, symName: __ZNKSt12_Vector_baseIiSaIiEE19_M_get_Tp_allocatorEv, symObjAddr: 0x1DD0, symBinAddr: 0x10000353C, symSize: 0xE }
  - { offsetInCU: 0xA5B1, offset: 0xA5B1, size: 0x8, addend: 0x0, symName: __ZSt25__uninitialized_default_nIPimET_S1_T0_, symObjAddr: 0x1DDE, symBinAddr: 0x10000354A, symSize: 0x29 }
  - { offsetInCU: 0xA5D8, offset: 0xA5D8, size: 0x8, addend: 0x0, symName: __ZNSt6vectorIiSaIiEE11_S_max_sizeERKS0_, symObjAddr: 0x1D76, symBinAddr: 0x1000034E2, symSize: 0x5A }
  - { offsetInCU: 0xA5E0, offset: 0xA5E0, size: 0x8, addend: 0x0, symName: __ZNKSt12_Vector_baseIiSaIiEE19_M_get_Tp_allocatorEv, symObjAddr: 0x1DD0, symBinAddr: 0x10000353C, symSize: 0xE }
  - { offsetInCU: 0xA6A5, offset: 0xA6A5, size: 0x8, addend: 0x0, symName: __ZNSt12_Destroy_auxILb1EE9__destroyIPiEEvT_S3_, symObjAddr: 0x1D67, symBinAddr: 0x1000034D3, symSize: 0xF }
  - { offsetInCU: 0xA6AD, offset: 0xA6AD, size: 0x8, addend: 0x0, symName: __ZNSt6vectorIiSaIiEE11_S_max_sizeERKS0_, symObjAddr: 0x1D76, symBinAddr: 0x1000034E2, symSize: 0x5A }
  - { offsetInCU: 0xA6E8, offset: 0xA6E8, size: 0x8, addend: 0x0, symName: __ZNSt15__new_allocatorIiE10deallocateEPim, symObjAddr: 0x1D36, symBinAddr: 0x1000034A2, symSize: 0x31 }
  - { offsetInCU: 0xA6F0, offset: 0xA6F0, size: 0x8, addend: 0x0, symName: __ZNSt12_Destroy_auxILb1EE9__destroyIPiEEvT_S3_, symObjAddr: 0x1D67, symBinAddr: 0x1000034D3, symSize: 0xF }
  - { offsetInCU: 0xA840, offset: 0xA840, size: 0x8, addend: 0x0, symName: __ZSt22__final_insertion_sortIN9__gnu_cxx17__normal_iteratorIP9IndividuoSt6vectorIS2_SaIS2_EEEENS0_5__ops15_Iter_less_iterEEvT_SA_T0_, symObjAddr: 0x1CAA, symBinAddr: 0x100003416, symSize: 0x8C }
  - { offsetInCU: 0xA848, offset: 0xA848, size: 0x8, addend: 0x0, symName: __ZNSt15__new_allocatorIiE10deallocateEPim, symObjAddr: 0x1D36, symBinAddr: 0x1000034A2, symSize: 0x31 }
  - { offsetInCU: 0xA8BB, offset: 0xA8BB, size: 0x8, addend: 0x0, symName: __ZSt16__introsort_loopIN9__gnu_cxx17__normal_iteratorIP9IndividuoSt6vectorIS2_SaIS2_EEEElNS0_5__ops15_Iter_less_iterEEvT_SA_T0_T1_, symObjAddr: 0x1C19, symBinAddr: 0x100003385, symSize: 0x91 }
  - { offsetInCU: 0xA8C3, offset: 0xA8C3, size: 0x8, addend: 0x0, symName: __ZSt22__final_insertion_sortIN9__gnu_cxx17__normal_iteratorIP9IndividuoSt6vectorIS2_SaIS2_EEEENS0_5__ops15_Iter_less_iterEEvT_SA_T0_, symObjAddr: 0x1CAA, symBinAddr: 0x100003416, symSize: 0x8C }
  - { offsetInCU: 0xA89C, offset: 0xA89C, size: 0x8, addend: 0x0, symName: __ZSt4__lgIlET_S0_, symObjAddr: 0x1BFA, symBinAddr: 0x100003366, symSize: 0x1F }
  - { offsetInCU: 0xA8A4, offset: 0xA8A4, size: 0x8, addend: 0x0, symName: __ZSt16__introsort_loopIN9__gnu_cxx17__normal_iteratorIP9IndividuoSt6vectorIS2_SaIS2_EEEElNS0_5__ops15_Iter_less_iterEEvT_SA_T0_T1_, symObjAddr: 0x1C19, symBinAddr: 0x100003385, symSize: 0x91 }
  - { offsetInCU: 0xA8C2, offset: 0xA8C2, size: 0x8, addend: 0x0, symName: __ZNK9__gnu_cxx17__normal_iteratorIP9IndividuoSt6vectorIS1_SaIS1_EEEmiEl, symObjAddr: 0x1BB8, symBinAddr: 0x100003324, symSize: 0x42 }
  - { offsetInCU: 0xA8CA, offset: 0xA8CA, size: 0x8, addend: 0x0, symName: __ZSt4__lgIlET_S0_, symObjAddr: 0x1BFA, symBinAddr: 0x100003366, symSize: 0x1F }
  - { offsetInCU: 0xA9DD, offset: 0xA9DD, size: 0x8, addend: 0x0, symName: __ZN9__gnu_cxxmiIP9IndividuoSt6vectorIS1_SaIS1_EEEENS_17__normal_iteratorIT_T0_E15difference_typeERKS9_SC_, symObjAddr: 0x1B76, symBinAddr: 0x1000032E2, symSize: 0x42 }
  - { offsetInCU: 0xA9E5, offset: 0xA9E5, size: 0x8, addend: 0x0, symName: __ZNK9__gnu_cxx17__normal_iteratorIP9IndividuoSt6vectorIS1_SaIS1_EEEmiEl, symObjAddr: 0x1BB8, symBinAddr: 0x100003324, symSize: 0x42 }
  - { offsetInCU: 0xA9AC, offset: 0xA9AC, size: 0x8, addend: 0x0, symName: __ZNKSt6vectorI9IndividuoSaIS0_EE12_M_check_lenEmPKc, symObjAddr: 0x1AAE, symBinAddr: 0x10000321A, symSize: 0xC8 }
  - { offsetInCU: 0xA9B4, offset: 0xA9B4, size: 0x8, addend: 0x0, symName: __ZN9__gnu_cxxmiIP9IndividuoSt6vectorIS1_SaIS1_EEEENS_17__normal_iteratorIT_T0_E15difference_typeERKS9_SC_, symObjAddr: 0x1B76, symBinAddr: 0x1000032E2, symSize: 0x42 }
  - { offsetInCU: 0xAAEA, offset: 0xAAEA, size: 0x8, addend: 0x0, symName: __ZSt12__relocate_aIP9IndividuoS1_SaIS0_EET0_T_S4_S3_RT1_, symObjAddr: 0x1A4A, symBinAddr: 0x1000031B6, symSize: 0x64 }
  - { offsetInCU: 0xAB3A, offset: 0xAB3A, size: 0x8, addend: 0x0, symName: __ZNKSt12_Vector_baseI9IndividuoSaIS0_EE19_M_get_Tp_allocatorEv, symObjAddr: 0x1A3C, symBinAddr: 0x1000031A8, symSize: 0xE }
  - { offsetInCU: 0xAB42, offset: 0xAB42, size: 0x8, addend: 0x0, symName: __ZSt12__relocate_aIP9IndividuoS1_SaIS0_EET0_T_S4_S3_RT1_, symObjAddr: 0x1A4A, symBinAddr: 0x1000031B6, symSize: 0x64 }
  - { offsetInCU: 0xAB69, offset: 0xAB69, size: 0x8, addend: 0x0, symName: __ZNSt6vectorI9IndividuoSaIS0_EE11_S_max_sizeERKS1_, symObjAddr: 0x19E2, symBinAddr: 0x10000314E, symSize: 0x5A }
  - { offsetInCU: 0xAB71, offset: 0xAB71, size: 0x8, addend: 0x0, symName: __ZNKSt12_Vector_baseI9IndividuoSaIS0_EE19_M_get_Tp_allocatorEv, symObjAddr: 0x1A3C, symBinAddr: 0x1000031A8, symSize: 0xE }
  - { offsetInCU: 0xAC6C, offset: 0xAC6C, size: 0x8, addend: 0x0, symName: __ZSt8_DestroyIP9IndividuoEvT_S2_, symObjAddr: 0x19BC, symBinAddr: 0x100003128, symSize: 0x26 }
  - { offsetInCU: 0xAC74, offset: 0xAC74, size: 0x8, addend: 0x0, symName: __ZNSt6vectorI9IndividuoSaIS0_EE11_S_max_sizeERKS1_, symObjAddr: 0x19E2, symBinAddr: 0x10000314E, symSize: 0x5A }
  - { offsetInCU: 0xACE2, offset: 0xACE2, size: 0x8, addend: 0x0, symName: __ZN9__gnu_cxx5__ops16_Iter_equals_valIKiEclINS_17__normal_iteratorIPiSt6vectorIiSaIiEEEEEEbT_, symObjAddr: 0x198E, symBinAddr: 0x1000030FA, symSize: 0x2E }
  - { offsetInCU: 0xACEA, offset: 0xACEA, size: 0x8, addend: 0x0, symName: __ZSt8_DestroyIP9IndividuoEvT_S2_, symObjAddr: 0x19BC, symBinAddr: 0x100003128, symSize: 0x26 }
  - { offsetInCU: 0xAD8D, offset: 0xAD8D, size: 0x8, addend: 0x0, symName: __ZN9__gnu_cxx5__ops16_Iter_equals_valIKiEC1ERS2_, symObjAddr: 0x1974, symBinAddr: 0x1000030E0, symSize: 0x1A }
  - { offsetInCU: 0xAD95, offset: 0xAD95, size: 0x8, addend: 0x0, symName: __ZN9__gnu_cxx5__ops16_Iter_equals_valIKiEclINS_17__normal_iteratorIPiSt6vectorIiSaIiEEEEEEbT_, symObjAddr: 0x198E, symBinAddr: 0x1000030FA, symSize: 0x2E }
  - { offsetInCU: 0xAD96, offset: 0xAD96, size: 0x8, addend: 0x0, symName: __ZNSt6vectorIiSaIiEE11_S_relocateEPiS2_S2_RS0_, symObjAddr: 0x1941, symBinAddr: 0x1000030AD, symSize: 0x33 }
  - { offsetInCU: 0xAE04, offset: 0xAE04, size: 0x8, addend: 0x0, symName: __ZNSt12_Vector_baseIiSaIiEE11_M_allocateEm, symObjAddr: 0x18F8, symBinAddr: 0x100003064, symSize: 0x49 }
  - { offsetInCU: 0xAE0C, offset: 0xAE0C, size: 0x8, addend: 0x0, symName: __ZNSt6vectorIiSaIiEE11_S_relocateEPiS2_S2_RS0_, symObjAddr: 0x1941, symBinAddr: 0x1000030AD, symSize: 0x33 }
  - { offsetInCU: 0xAE79, offset: 0xAE79, size: 0x8, addend: 0x0, symName: __ZNKSt6vectorIiSaIiEE12_M_check_lenEmPKc, symObjAddr: 0x1830, symBinAddr: 0x100002F9C, symSize: 0xC8 }
  - { offsetInCU: 0xAE81, offset: 0xAE81, size: 0x8, addend: 0x0, symName: __ZNSt12_Vector_baseIiSaIiEE11_M_allocateEm, symObjAddr: 0x18F8, symBinAddr: 0x100003064, symSize: 0x49 }
  - { offsetInCU: 0xAF5C, offset: 0xAF5C, size: 0x8, addend: 0x0, symName: __ZSt27__uninitialized_default_n_aIPimiET_S1_T0_RSaIT1_E, symObjAddr: 0x1806, symBinAddr: 0x100002F72, symSize: 0x2A }
  - { offsetInCU: 0xAF6B, offset: 0xAF6B, size: 0x8, addend: 0x0, symName: __ZNKSt6vectorIiSaIiEE8max_sizeEv, symObjAddr: 0x17E4, symBinAddr: 0x100002F50, symSize: 0x22 }
  - { offsetInCU: 0xAF73, offset: 0xAF73, size: 0x8, addend: 0x0, symName: __ZSt27__uninitialized_default_n_aIPimiET_S1_T0_RSaIT1_E, symObjAddr: 0x1806, symBinAddr: 0x100002F72, symSize: 0x2A }
  - { offsetInCU: 0xAFC1, offset: 0xAFC1, size: 0x8, addend: 0x0, symName: __ZSt8_DestroyIPiEvT_S1_, symObjAddr: 0x17BE, symBinAddr: 0x100002F2A, symSize: 0x26 }
  - { offsetInCU: 0xAFC9, offset: 0xAFC9, size: 0x8, addend: 0x0, symName: __ZNKSt6vectorIiSaIiEE8max_sizeEv, symObjAddr: 0x17E4, symBinAddr: 0x100002F50, symSize: 0x22 }
  - { offsetInCU: 0xB046, offset: 0xB046, size: 0x8, addend: 0x0, symName: __ZNK9__gnu_cxx17__normal_iteratorIPiSt6vectorIiSaIiEEE4baseEv, symObjAddr: 0x17B0, symBinAddr: 0x100002F1C, symSize: 0xE }
  - { offsetInCU: 0xB04E, offset: 0xB04E, size: 0x8, addend: 0x0, symName: __ZSt8_DestroyIPiEvT_S1_, symObjAddr: 0x17BE, symBinAddr: 0x100002F2A, symSize: 0x26 }
  - { offsetInCU: 0xB075, offset: 0xB075, size: 0x8, addend: 0x0, symName: __ZNK9__gnu_cxx17__normal_iteratorIP9IndividuoSt6vectorIS1_SaIS1_EEE4baseEv, symObjAddr: 0x17A2, symBinAddr: 0x100002F0E, symSize: 0xE }
  - { offsetInCU: 0xB07D, offset: 0xB07D, size: 0x8, addend: 0x0, symName: __ZNK9__gnu_cxx17__normal_iteratorIPiSt6vectorIiSaIiEEE4baseEv, symObjAddr: 0x17B0, symBinAddr: 0x100002F1C, symSize: 0xE }
  - { offsetInCU: 0xB0E5, offset: 0xB0E5, size: 0x8, addend: 0x0, symName: __ZSt4moveIRiEONSt16remove_referenceIT_E4typeEOS2_, symObjAddr: 0x1794, symBinAddr: 0x100002F00, symSize: 0xE }
  - { offsetInCU: 0xB0ED, offset: 0xB0ED, size: 0x8, addend: 0x0, symName: __ZNK9__gnu_cxx17__normal_iteratorIP9IndividuoSt6vectorIS1_SaIS1_EEE4baseEv, symObjAddr: 0x17A2, symBinAddr: 0x100002F0E, symSize: 0xE }
  - { offsetInCU: 0xB1DA, offset: 0xB1DA, size: 0x8, addend: 0x0, symName: __ZSt6__sortIN9__gnu_cxx17__normal_iteratorIP9IndividuoSt6vectorIS2_SaIS2_EEEENS0_5__ops15_Iter_less_iterEEvT_SA_T0_, symObjAddr: 0x1725, symBinAddr: 0x100002E91, symSize: 0x6F }
  - { offsetInCU: 0xB1E2, offset: 0xB1E2, size: 0x8, addend: 0x0, symName: __ZSt4moveIRiEONSt16remove_referenceIT_E4typeEOS2_, symObjAddr: 0x1794, symBinAddr: 0x100002F00, symSize: 0xE }
  - { offsetInCU: 0xB1E6, offset: 0xB1E6, size: 0x8, addend: 0x0, symName: __ZN9__gnu_cxx17__normal_iteratorIP9IndividuoSt6vectorIS1_SaIS1_EEEC1ERKS2_, symObjAddr: 0x1708, symBinAddr: 0x100002E74, symSize: 0x1D }
  - { offsetInCU: 0xB1EE, offset: 0xB1EE, size: 0x8, addend: 0x0, symName: __ZSt6__sortIN9__gnu_cxx17__normal_iteratorIP9IndividuoSt6vectorIS2_SaIS2_EEEENS0_5__ops15_Iter_less_iterEEvT_SA_T0_, symObjAddr: 0x1725, symBinAddr: 0x100002E91, symSize: 0x6F }
  - { offsetInCU: 0xB1D5, offset: 0xB1D5, size: 0x8, addend: 0x0, symName: __ZNSt6vectorI9IndividuoSaIS0_EE4backEv, symObjAddr: 0x16C8, symBinAddr: 0x100002E34, symSize: 0x40 }
  - { offsetInCU: 0xB204, offset: 0xB204, size: 0x8, addend: 0x0, symName: __ZNSt6vectorI9IndividuoSaIS0_EE17_M_realloc_insertIJRiEEEvN9__gnu_cxx17__normal_iteratorIPS0_S2_EEDpOT_, symObjAddr: 0x139A, symBinAddr: 0x100002B06, symSize: 0x32E }
  - { offsetInCU: 0xB4B1, offset: 0xB4B1, size: 0x8, addend: 0x0, symName: __ZSt7forwardIRiEOT_RNSt16remove_referenceIS1_E4typeE, symObjAddr: 0x138B, symBinAddr: 0x100002AF7, symSize: 0xF }
  - { offsetInCU: 0xB4BE, offset: 0xB4BE, size: 0x8, addend: 0x0, symName: __ZNSt6vectorI9IndividuoSaIS0_EE11_S_relocateEPS0_S3_S3_RS1_, symObjAddr: 0x1359, symBinAddr: 0x100002AC5, symSize: 0x32 }
  - { offsetInCU: 0xB4C6, offset: 0xB4C6, size: 0x8, addend: 0x0, symName: __ZSt7forwardIRiEOT_RNSt16remove_referenceIS1_E4typeE, symObjAddr: 0x138B, symBinAddr: 0x100002AF7, symSize: 0xF }
  - { offsetInCU: 0xB52C, offset: 0xB52C, size: 0x8, addend: 0x0, symName: __ZNSt12_Vector_baseI9IndividuoSaIS0_EE11_M_allocateEm, symObjAddr: 0x1310, symBinAddr: 0x100002A7C, symSize: 0x49 }
  - { offsetInCU: 0xB534, offset: 0xB534, size: 0x8, addend: 0x0, symName: __ZNSt6vectorI9IndividuoSaIS0_EE11_S_relocateEPS0_S3_S3_RS1_, symObjAddr: 0x1359, symBinAddr: 0x100002AC5, symSize: 0x32 }
  - { offsetInCU: 0xB5A1, offset: 0xB5A1, size: 0x8, addend: 0x0, symName: __ZNKSt6vectorI9IndividuoSaIS0_EE4sizeEv, symObjAddr: 0x12EC, symBinAddr: 0x100002A58, symSize: 0x24 }
  - { offsetInCU: 0xB5D0, offset: 0xB5D0, size: 0x8, addend: 0x0, symName: __ZNKSt6vectorI9IndividuoSaIS0_EE8capacityEv, symObjAddr: 0x12C8, symBinAddr: 0x100002A34, symSize: 0x24 }
  - { offsetInCU: 0xB5FF, offset: 0xB5FF, size: 0x8, addend: 0x0, symName: __ZNKSt6vectorI9IndividuoSaIS0_EE8max_sizeEv, symObjAddr: 0x12A6, symBinAddr: 0x100002A12, symSize: 0x22 }
  - { offsetInCU: 0xB607, offset: 0xB607, size: 0x8, addend: 0x0, symName: __ZNKSt6vectorI9IndividuoSaIS0_EE8capacityEv, symObjAddr: 0x12C8, symBinAddr: 0x100002A34, symSize: 0x24 }
  - { offsetInCU: 0xB683, offset: 0xB683, size: 0x8, addend: 0x0, symName: __ZNSt12_Vector_baseI9IndividuoSaIS0_EE19_M_get_Tp_allocatorEv, symObjAddr: 0x1298, symBinAddr: 0x100002A04, symSize: 0xE }
  - { offsetInCU: 0xB68B, offset: 0xB68B, size: 0x8, addend: 0x0, symName: __ZNKSt6vectorI9IndividuoSaIS0_EE8max_sizeEv, symObjAddr: 0x12A6, symBinAddr: 0x100002A12, symSize: 0x22 }
  - { offsetInCU: 0xB6B2, offset: 0xB6B2, size: 0x8, addend: 0x0, symName: __ZNSt12_Vector_baseI9IndividuoSaIS0_EE13_M_deallocateEPS0_m, symObjAddr: 0x124A, symBinAddr: 0x1000029B6, symSize: 0x4E }
  - { offsetInCU: 0xB6BA, offset: 0xB6BA, size: 0x8, addend: 0x0, symName: __ZNSt12_Vector_baseI9IndividuoSaIS0_EE19_M_get_Tp_allocatorEv, symObjAddr: 0x1298, symBinAddr: 0x100002A04, symSize: 0xE }
  - { offsetInCU: 0xB796, offset: 0xB796, size: 0x8, addend: 0x0, symName: __ZNSt15__new_allocatorI9IndividuoED2Ev, symObjAddr: 0x123E, symBinAddr: 0x1000029AA, symSize: 0xC }
  - { offsetInCU: 0xB7F4, offset: 0xB7F4, size: 0x8, addend: 0x0, symName: __ZNSt12_Vector_baseI9IndividuoSaIS0_EE17_Vector_impl_dataC2Ev, symObjAddr: 0x1210, symBinAddr: 0x10000297C, symSize: 0x2E }
  - { offsetInCU: 0xB7FC, offset: 0xB7FC, size: 0x8, addend: 0x0, symName: __ZNSt15__new_allocatorI9IndividuoED2Ev, symObjAddr: 0x123E, symBinAddr: 0x1000029AA, symSize: 0xC }
  - { offsetInCU: 0xB90F, offset: 0xB90F, size: 0x8, addend: 0x0, symName: __ZSt10__count_ifIN9__gnu_cxx17__normal_iteratorIPiSt6vectorIiSaIiEEEENS0_5__ops16_Iter_equals_valIKiEEENSt15iterator_traitsIT_E15difference_typeESC_SC_T0_, symObjAddr: 0x11AC, symBinAddr: 0x100002918, symSize: 0x64 }
  - { offsetInCU: 0xB8FF, offset: 0xB8FF, size: 0x8, addend: 0x0, symName: __ZN9__gnu_cxx5__ops17__iter_equals_valIKiEENS0_16_Iter_equals_valIT_EERS4_, symObjAddr: 0x1187, symBinAddr: 0x1000028F3, symSize: 0x25 }
  - { offsetInCU: 0xB907, offset: 0xB907, size: 0x8, addend: 0x0, symName: __ZSt10__count_ifIN9__gnu_cxx17__normal_iteratorIPiSt6vectorIiSaIiEEEENS0_5__ops16_Iter_equals_valIKiEEENSt15iterator_traitsIT_E15difference_typeESC_SC_T0_, symObjAddr: 0x11AC, symBinAddr: 0x100002918, symSize: 0x64 }
  - { offsetInCU: 0xB946, offset: 0xB946, size: 0x8, addend: 0x0, symName: __ZN9__gnu_cxx17__normal_iteratorIPiSt6vectorIiSaIiEEEC1ERKS1_, symObjAddr: 0x116A, symBinAddr: 0x1000028D6, symSize: 0x1D }
  - { offsetInCU: 0xB94E, offset: 0xB94E, size: 0x8, addend: 0x0, symName: __ZN9__gnu_cxx5__ops17__iter_equals_valIKiEENS0_16_Iter_equals_valIT_EERS4_, symObjAddr: 0x1187, symBinAddr: 0x1000028F3, symSize: 0x25 }
  - { offsetInCU: 0xB942, offset: 0xB942, size: 0x8, addend: 0x0, symName: __ZNSt6vectorIiSaIiEE15_M_erase_at_endEPi, symObjAddr: 0x10F8, symBinAddr: 0x100002864, symSize: 0x72 }
  - { offsetInCU: 0xB94A, offset: 0xB94A, size: 0x8, addend: 0x0, symName: __ZN9__gnu_cxx17__normal_iteratorIPiSt6vectorIiSaIiEEEC1ERKS1_, symObjAddr: 0x116A, symBinAddr: 0x1000028D6, symSize: 0x1D }
  - { offsetInCU: 0xB9E9, offset: 0xB9E9, size: 0x8, addend: 0x0, symName: __ZNSt6vectorIiSaIiEE17_M_default_appendEm, symObjAddr: 0xEF0, symBinAddr: 0x10000265C, symSize: 0x208 }
  - { offsetInCU: 0xB9F1, offset: 0xB9F1, size: 0x8, addend: 0x0, symName: __ZNSt6vectorIiSaIiEE15_M_erase_at_endEPi, symObjAddr: 0x10F8, symBinAddr: 0x100002864, symSize: 0x72 }
  - { offsetInCU: 0xBACC, offset: 0xBACC, size: 0x8, addend: 0x0, symName: __ZNKSt6vectorIiSaIiEE4sizeEv, symObjAddr: 0xECC, symBinAddr: 0x100002638, symSize: 0x24 }
  - { offsetInCU: 0xBB50, offset: 0xBB50, size: 0x8, addend: 0x0, symName: __ZNSt12_Vector_baseIiSaIiEE19_M_get_Tp_allocatorEv, symObjAddr: 0xEBE, symBinAddr: 0x10000262A, symSize: 0xE }
  - { offsetInCU: 0xBB58, offset: 0xBB58, size: 0x8, addend: 0x0, symName: __ZNKSt6vectorIiSaIiEE4sizeEv, symObjAddr: 0xECC, symBinAddr: 0x100002638, symSize: 0x24 }
  - { offsetInCU: 0xBB7F, offset: 0xBB7F, size: 0x8, addend: 0x0, symName: __ZNSt12_Vector_baseIiSaIiEE13_M_deallocateEPim, symObjAddr: 0xE70, symBinAddr: 0x1000025DC, symSize: 0x4E }
  - { offsetInCU: 0xBB87, offset: 0xBB87, size: 0x8, addend: 0x0, symName: __ZNSt12_Vector_baseIiSaIiEE19_M_get_Tp_allocatorEv, symObjAddr: 0xEBE, symBinAddr: 0x10000262A, symSize: 0xE }
  - { offsetInCU: 0xBC5A, offset: 0xBC5A, size: 0x8, addend: 0x0, symName: __ZNSt15__new_allocatorIiED2Ev, symObjAddr: 0xE64, symBinAddr: 0x1000025D0, symSize: 0xC }
  - { offsetInCU: 0xBCB6, offset: 0xBCB6, size: 0x8, addend: 0x0, symName: __ZNSt12_Vector_baseIiSaIiEE17_Vector_impl_dataC1Ev, symObjAddr: 0xE36, symBinAddr: 0x1000025A2, symSize: 0x2E }
  - { offsetInCU: 0xBCBE, offset: 0xBCBE, size: 0x8, addend: 0x0, symName: __ZNSt15__new_allocatorIiED2Ev, symObjAddr: 0xE64, symBinAddr: 0x1000025D0, symSize: 0xC }
  - { offsetInCU: 0xBCE4, offset: 0xBCE4, size: 0x8, addend: 0x0, symName: __ZNSt12_Vector_baseIiSaIiEE17_Vector_impl_dataC2Ev, symObjAddr: 0xE08, symBinAddr: 0x100002574, symSize: 0x2E }
  - { offsetInCU: 0xBCEC, offset: 0xBCEC, size: 0x8, addend: 0x0, symName: __ZNSt12_Vector_baseIiSaIiEE17_Vector_impl_dataC1Ev, symObjAddr: 0xE36, symBinAddr: 0x1000025A2, symSize: 0x2E }
  - { offsetInCU: 0xBCF8, offset: 0xBCF8, size: 0x8, addend: 0x0, symName: __ZNK9__gnu_cxx17__normal_iteratorIPiSt6vectorIiSaIiEEEdeEv, symObjAddr: 0xDF6, symBinAddr: 0x100002562, symSize: 0x12 }
  - { offsetInCU: 0xBD27, offset: 0xBD27, size: 0x8, addend: 0x0, symName: __ZN9__gnu_cxx17__normal_iteratorIPiSt6vectorIiSaIiEEEppEv, symObjAddr: 0xDD6, symBinAddr: 0x100002542, symSize: 0x20 }
  - { offsetInCU: 0xBD2F, offset: 0xBD2F, size: 0x8, addend: 0x0, symName: __ZNK9__gnu_cxx17__normal_iteratorIPiSt6vectorIiSaIiEEEdeEv, symObjAddr: 0xDF6, symBinAddr: 0x100002562, symSize: 0x12 }
  - { offsetInCU: 0xBDC9, offset: 0xBDC9, size: 0x8, addend: 0x0, symName: __ZN9__gnu_cxxneIPiSt6vectorIiSaIiEEEEbRKNS_17__normal_iteratorIT_T0_EESA_, symObjAddr: 0xD9B, symBinAddr: 0x100002507, symSize: 0x3B }
  - { offsetInCU: 0xBDD1, offset: 0xBDD1, size: 0x8, addend: 0x0, symName: __ZN9__gnu_cxx17__normal_iteratorIPiSt6vectorIiSaIiEEEppEv, symObjAddr: 0xDD6, symBinAddr: 0x100002542, symSize: 0x20 }
  - { offsetInCU: 0xBDCD, offset: 0xBDCD, size: 0x8, addend: 0x0, symName: __ZNK9__gnu_cxx17__normal_iteratorIP9IndividuoSt6vectorIS1_SaIS1_EEEdeEv, symObjAddr: 0xD8A, symBinAddr: 0x1000024F6, symSize: 0x11 }
  - { offsetInCU: 0xBDD5, offset: 0xBDD5, size: 0x8, addend: 0x0, symName: __ZN9__gnu_cxxneIPiSt6vectorIiSaIiEEEEbRKNS_17__normal_iteratorIT_T0_EESA_, symObjAddr: 0xD9B, symBinAddr: 0x100002507, symSize: 0x3B }
  - { offsetInCU: 0xBDFC, offset: 0xBDFC, size: 0x8, addend: 0x0, symName: __ZN9__gnu_cxx17__normal_iteratorIP9IndividuoSt6vectorIS1_SaIS1_EEEppEv, symObjAddr: 0xD6A, symBinAddr: 0x1000024D6, symSize: 0x20 }
  - { offsetInCU: 0xBE04, offset: 0xBE04, size: 0x8, addend: 0x0, symName: __ZNK9__gnu_cxx17__normal_iteratorIP9IndividuoSt6vectorIS1_SaIS1_EEEdeEv, symObjAddr: 0xD8A, symBinAddr: 0x1000024F6, symSize: 0x11 }
  - { offsetInCU: 0xBEB7, offset: 0xBEB7, size: 0x8, addend: 0x0, symName: __ZN9__gnu_cxxneIP9IndividuoSt6vectorIS1_SaIS1_EEEEbRKNS_17__normal_iteratorIT_T0_EESB_, symObjAddr: 0xD2E, symBinAddr: 0x10000249A, symSize: 0x3C }
  - { offsetInCU: 0xBF3E, offset: 0xBF3E, size: 0x8, addend: 0x0, symName: __ZSt4swapIiENSt9enable_ifIXsrSt6__and_IJSt6__not_ISt15__is_tuple_likeIT_EESt21is_move_constructibleIS4_ESt18is_move_assignableIS4_EEE5valueEvE4typeERS4_SE_, symObjAddr: 0xCE2, symBinAddr: 0x10000244E, symSize: 0x4C }
  - { offsetInCU: 0xBF46, offset: 0xBF46, size: 0x8, addend: 0x0, symName: __ZN9__gnu_cxxneIP9IndividuoSt6vectorIS1_SaIS1_EEEEbRKNS_17__normal_iteratorIT_T0_EESB_, symObjAddr: 0xD2E, symBinAddr: 0x10000249A, symSize: 0x3C }
  - { offsetInCU: 0xBF00, offset: 0xBF00, size: 0x8, addend: 0x0, symName: __ZNSt6vectorI9IndividuoSaIS0_EEixEm, symObjAddr: 0xCC2, symBinAddr: 0x10000242E, symSize: 0x20 }
  - { offsetInCU: 0xBF08, offset: 0xBF08, size: 0x8, addend: 0x0, symName: __ZSt4swapIiENSt9enable_ifIXsrSt6__and_IJSt6__not_ISt15__is_tuple_likeIT_EESt21is_move_constructibleIS4_ESt18is_move_assignableIS4_EEE5valueEvE4typeERS4_SE_, symObjAddr: 0xCE2, symBinAddr: 0x10000244E, symSize: 0x4C }
  - { offsetInCU: 0xBFE0, offset: 0xBFE0, size: 0x8, addend: 0x0, symName: __ZSt4sortIN9__gnu_cxx17__normal_iteratorIP9IndividuoSt6vectorIS2_SaIS2_EEEEEvT_S8_, symObjAddr: 0xC97, symBinAddr: 0x100002403, symSize: 0x2B }
  - { offsetInCU: 0xBFE8, offset: 0xBFE8, size: 0x8, addend: 0x0, symName: __ZNSt6vectorI9IndividuoSaIS0_EEixEm, symObjAddr: 0xCC2, symBinAddr: 0x10000242E, symSize: 0x20 }
  - { offsetInCU: 0xBF9B, offset: 0xBF9B, size: 0x8, addend: 0x0, symName: __ZNSt6vectorI9IndividuoSaIS0_EE3endEv, symObjAddr: 0xC6E, symBinAddr: 0x1000023DA, symSize: 0x29 }
  - { offsetInCU: 0xBFA3, offset: 0xBFA3, size: 0x8, addend: 0x0, symName: __ZSt4sortIN9__gnu_cxx17__normal_iteratorIP9IndividuoSt6vectorIS2_SaIS2_EEEEEvT_S8_, symObjAddr: 0xC97, symBinAddr: 0x100002403, symSize: 0x2B }
  - { offsetInCU: 0xBFCA, offset: 0xBFCA, size: 0x8, addend: 0x0, symName: __ZNSt6vectorI9IndividuoSaIS0_EE5beginEv, symObjAddr: 0xC48, symBinAddr: 0x1000023B4, symSize: 0x26 }
  - { offsetInCU: 0xBFF9, offset: 0xBFF9, size: 0x8, addend: 0x0, symName: __ZNSt6vectorI9IndividuoSaIS0_EE12emplace_backIJRiEEERS0_DpOT_, symObjAddr: 0xB22, symBinAddr: 0x10000228E, symSize: 0x126 }
  - { offsetInCU: 0xC0CA, offset: 0xC0CA, size: 0x8, addend: 0x0, symName: __ZNSt6vectorI9IndividuoSaIS0_EE7reserveEm, symObjAddr: 0xA08, symBinAddr: 0x100002174, symSize: 0x11A }
  - { offsetInCU: 0xC18F, offset: 0xC18F, size: 0x8, addend: 0x0, symName: __ZNSt6vectorI9IndividuoSaIS0_EED1Ev, symObjAddr: 0x9B2, symBinAddr: 0x10000211E, symSize: 0x56 }
  - { offsetInCU: 0xC197, offset: 0xC197, size: 0x8, addend: 0x0, symName: __ZNSt6vectorI9IndividuoSaIS0_EE7reserveEm, symObjAddr: 0xA08, symBinAddr: 0x100002174, symSize: 0x11A }
  - { offsetInCU: 0xC229, offset: 0xC229, size: 0x8, addend: 0x0, symName: __ZNSt12_Vector_baseI9IndividuoSaIS0_EED2Ev, symObjAddr: 0x964, symBinAddr: 0x1000020D0, symSize: 0x4E }
  - { offsetInCU: 0xC2A5, offset: 0xC2A5, size: 0x8, addend: 0x0, symName: __ZNSt12_Vector_baseI9IndividuoSaIS0_EE12_Vector_implC1Ev, symObjAddr: 0x936, symBinAddr: 0x1000020A2, symSize: 0x2E }
  - { offsetInCU: 0xC3A4, offset: 0xC3A4, size: 0x8, addend: 0x0, symName: __ZSt5countIN9__gnu_cxx17__normal_iteratorIPiSt6vectorIiSaIiEEEEiENSt15iterator_traitsIT_E15difference_typeES8_S8_RKT0_, symObjAddr: 0x8FD, symBinAddr: 0x100002069, symSize: 0x39 }
  - { offsetInCU: 0xC367, offset: 0xC367, size: 0x8, addend: 0x0, symName: __ZNSt6vectorIiSaIiEE3endEv, symObjAddr: 0x8D4, symBinAddr: 0x100002040, symSize: 0x29 }
  - { offsetInCU: 0xC36F, offset: 0xC36F, size: 0x8, addend: 0x0, symName: __ZSt5countIN9__gnu_cxx17__normal_iteratorIPiSt6vectorIiSaIiEEEEiENSt15iterator_traitsIT_E15difference_typeES8_S8_RKT0_, symObjAddr: 0x8FD, symBinAddr: 0x100002069, symSize: 0x39 }
  - { offsetInCU: 0xC396, offset: 0xC396, size: 0x8, addend: 0x0, symName: __ZNSt6vectorIiSaIiEE5beginEv, symObjAddr: 0x8AE, symBinAddr: 0x10000201A, symSize: 0x26 }
  - { offsetInCU: 0xC3C5, offset: 0xC3C5, size: 0x8, addend: 0x0, symName: __ZNSt6vectorIiSaIiEEixEm, symObjAddr: 0x88E, symBinAddr: 0x100001FFA, symSize: 0x20 }
  - { offsetInCU: 0xC3CD, offset: 0xC3CD, size: 0x8, addend: 0x0, symName: __ZNSt6vectorIiSaIiEE5beginEv, symObjAddr: 0x8AE, symBinAddr: 0x10000201A, symSize: 0x26 }
  - { offsetInCU: 0xC408, offset: 0xC408, size: 0x8, addend: 0x0, symName: __ZNSt6vectorIiSaIiEE6resizeEm, symObjAddr: 0x808, symBinAddr: 0x100001F74, symSize: 0x86 }
  - { offsetInCU: 0xC410, offset: 0xC410, size: 0x8, addend: 0x0, symName: __ZNSt6vectorIiSaIiEEixEm, symObjAddr: 0x88E, symBinAddr: 0x100001FFA, symSize: 0x20 }
  - { offsetInCU: 0xC48B, offset: 0xC48B, size: 0x8, addend: 0x0, symName: __ZNSt6vectorIiSaIiEED1Ev, symObjAddr: 0x7B2, symBinAddr: 0x100001F1E, symSize: 0x56 }
  - { offsetInCU: 0xC493, offset: 0xC493, size: 0x8, addend: 0x0, symName: __ZNSt6vectorIiSaIiEE6resizeEm, symObjAddr: 0x808, symBinAddr: 0x100001F74, symSize: 0x86 }
  - { offsetInCU: 0xC525, offset: 0xC525, size: 0x8, addend: 0x0, symName: __ZNSt12_Vector_baseIiSaIiEED2Ev, symObjAddr: 0x764, symBinAddr: 0x100001ED0, symSize: 0x4E }
  - { offsetInCU: 0xC5A1, offset: 0xC5A1, size: 0x8, addend: 0x0, symName: __ZNSt12_Vector_baseIiSaIiEE12_Vector_implC1Ev, symObjAddr: 0x736, symBinAddr: 0x100001EA2, symSize: 0x2E }
  - { offsetInCU: 0xC5F7, offset: 0xC5F7, size: 0x8, addend: 0x0, symName: _main, symObjAddr: 0x66D, symBinAddr: 0x100001DD9, symSize: 0xC9 }
  - { offsetInCU: 0xC6DD, offset: 0xC6DD, size: 0x8, addend: 0x0, symName: __ZN17AlgoritmoGeneticoD1Ev, symObjAddr: 0x64E, symBinAddr: 0x100001DBA, symSize: 0x1F }
  - { offsetInCU: 0xC6E5, offset: 0xC6E5, size: 0x8, addend: 0x0, symName: _main, symObjAddr: 0x66D, symBinAddr: 0x100001DD9, symSize: 0xC9 }
  - { offsetInCU: 0xC6F0, offset: 0xC6F0, size: 0x8, addend: 0x0, symName: __ZN17AlgoritmoGenetico23imprimirMelhorIndividuoEv, symObjAddr: 0x54A, symBinAddr: 0x100001CB6, symSize: 0x104 }
  - { offsetInCU: 0xC778, offset: 0xC778, size: 0x8, addend: 0x0, symName: __ZN17AlgoritmoGenetico7mutacaoEv, symObjAddr: 0x418, symBinAddr: 0x100001B84, symSize: 0x132 }
  - { offsetInCU: 0xC780, offset: 0xC780, size: 0x8, addend: 0x0, symName: __ZN17AlgoritmoGenetico23imprimirMelhorIndividuoEv, symObjAddr: 0x54A, symBinAddr: 0x100001CB6, symSize: 0x104 }
  - { offsetInCU: 0xC826, offset: 0xC826, size: 0x8, addend: 0x0, symName: __ZN17AlgoritmoGenetico9crossoverEv, symObjAddr: 0x2D6, symBinAddr: 0x100001A42, symSize: 0x142 }
  - { offsetInCU: 0xC93C, offset: 0xC93C, size: 0x8, addend: 0x0, symName: __ZN17AlgoritmoGeneticoC1Eiif, symObjAddr: 0x218, symBinAddr: 0x100001984, symSize: 0xBE }
  - { offsetInCU: 0xC9E8, offset: 0xC9E8, size: 0x8, addend: 0x0, symName: __ZNSt6vectorI9IndividuoSaIS0_EEC1Ev, symObjAddr: 0x1FC, symBinAddr: 0x100001968, symSize: 0x1C }
  - { offsetInCU: 0xCA36, offset: 0xCA36, size: 0x8, addend: 0x0, symName: __ZNSt12_Vector_baseI9IndividuoSaIS0_EEC2Ev, symObjAddr: 0x1E0, symBinAddr: 0x10000194C, symSize: 0x1C }
  - { offsetInCU: 0xCA9C, offset: 0xCA9C, size: 0x8, addend: 0x0, symName: __ZNSt12_Vector_baseI9IndividuoSaIS0_EE12_Vector_implD1Ev, symObjAddr: 0x1BC, symBinAddr: 0x100001928, symSize: 0x24 }
  - { offsetInCU: 0xCAA4, offset: 0xCAA4, size: 0x8, addend: 0x0, symName: __ZNSt12_Vector_baseI9IndividuoSaIS0_EEC2Ev, symObjAddr: 0x1E0, symBinAddr: 0x10000194C, symSize: 0x1C }
  - { offsetInCU: 0xCAB7, offset: 0xCAB7, size: 0x8, addend: 0x0, symName: __ZNK9IndividuoltERKS_, symObjAddr: 0x19A, symBinAddr: 0x100001906, symSize: 0x22 }
  - { offsetInCU: 0xCAF9, offset: 0xCAF9, size: 0x8, addend: 0x0, symName: __ZN9Individuo15calcularFitnessEv, symObjAddr: 0x146, symBinAddr: 0x1000018B2, symSize: 0x54 }
  - { offsetInCU: 0xCB01, offset: 0xCB01, size: 0x8, addend: 0x0, symName: __ZNK9IndividuoltERKS_, symObjAddr: 0x19A, symBinAddr: 0x100001906, symSize: 0x22 }
  - { offsetInCU: 0xCB75, offset: 0xCB75, size: 0x8, addend: 0x0, symName: __ZN9IndividuoC1Ei, symObjAddr: 0xA4, symBinAddr: 0x100001810, symSize: 0xA2 }
  - { offsetInCU: 0xCC08, offset: 0xCC08, size: 0x8, addend: 0x0, symName: __ZNSt6vectorIiSaIiEEC1Ev, symObjAddr: 0x88, symBinAddr: 0x1000017F4, symSize: 0x1C }
  - { offsetInCU: 0xCC56, offset: 0xCC56, size: 0x8, addend: 0x0, symName: __ZNSt12_Vector_baseIiSaIiEEC2Ev, symObjAddr: 0x6C, symBinAddr: 0x1000017D8, symSize: 0x1C }
  - { offsetInCU: 0xCCBC, offset: 0xCCBC, size: 0x8, addend: 0x0, symName: __ZNSt12_Vector_baseIiSaIiEE12_Vector_implD1Ev, symObjAddr: 0x48, symBinAddr: 0x1000017B4, symSize: 0x24 }
  - { offsetInCU: 0xCCC4, offset: 0xCCC4, size: 0x8, addend: 0x0, symName: __ZNSt12_Vector_baseIiSaIiEEC2Ev, symObjAddr: 0x6C, symBinAddr: 0x1000017D8, symSize: 0x1C }
  - { offsetInCU: 0xCD12, offset: 0xCD12, size: 0x8, addend: 0x0, symName: __ZSt17__size_to_integerm, symObjAddr: 0x3A, symBinAddr: 0x1000017A6, symSize: 0xE }
  - { offsetInCU: 0xCD1A, offset: 0xCD1A, size: 0x8, addend: 0x0, symName: __ZNSt12_Vector_baseIiSaIiEE12_Vector_implD1Ev, symObjAddr: 0x48, symBinAddr: 0x1000017B4, symSize: 0x24 }
  - { offsetInCU: 0xCD71, offset: 0xCD71, size: 0x8, addend: 0x0, symName: __ZN9__gnu_cxx5__ops15__val_comp_iterENS0_15_Iter_less_iterE, symObjAddr: 0x33, symBinAddr: 0x10000179F, symSize: 0x7 }
  - { offsetInCU: 0xCD79, offset: 0xCD79, size: 0x8, addend: 0x0, symName: __ZSt17__size_to_integerm, symObjAddr: 0x3A, symBinAddr: 0x1000017A6, symSize: 0xE }
  - { offsetInCU: 0xCDB6, offset: 0xCDB6, size: 0x8, addend: 0x0, symName: __ZN9__gnu_cxx5__ops14_Iter_less_valC1ENS0_15_Iter_less_iterE, symObjAddr: 0x28, symBinAddr: 0x100001794, symSize: 0xB }
  - { offsetInCU: 0xCDBE, offset: 0xCDBE, size: 0x8, addend: 0x0, symName: __ZN9__gnu_cxx5__ops15__val_comp_iterENS0_15_Iter_less_iterE, symObjAddr: 0x33, symBinAddr: 0x10000179F, symSize: 0x7 }
  - { offsetInCU: 0xCDF1, offset: 0xCDF1, size: 0x8, addend: 0x0, symName: __ZN9__gnu_cxx5__ops16__iter_less_iterEv, symObjAddr: 0x21, symBinAddr: 0x10000178D, symSize: 0x7 }
  - { offsetInCU: 0xCDF9, offset: 0xCDF9, size: 0x8, addend: 0x0, symName: __ZN9__gnu_cxx5__ops14_Iter_less_valC1ENS0_15_Iter_less_iterE, symObjAddr: 0x28, symBinAddr: 0x100001794, symSize: 0xB }
  - { offsetInCU: 0xCDEA, offset: 0xCDEA, size: 0x8, addend: 0x0, symName: __ZdlPvS_, symObjAddr: 0x12, symBinAddr: 0x10000177E, symSize: 0xF }
  - { offsetInCU: 0xCDF2, offset: 0xCDF2, size: 0x8, addend: 0x0, symName: __ZN9__gnu_cxx5__ops16__iter_less_iterEv, symObjAddr: 0x21, symBinAddr: 0x10000178D, symSize: 0x7 }
  - { offsetInCU: 0xCE27, offset: 0xCE27, size: 0x8, addend: 0x0, symName: __ZnwmPv, symObjAddr: 0x0, symBinAddr: 0x10000176C, symSize: 0x12 }
  - { offsetInCU: 0xCE2F, offset: 0xCE2F, size: 0x8, addend: 0x0, symName: __ZdlPvS_, symObjAddr: 0x12, symBinAddr: 0x10000177E, symSize: 0xF }
...
